target datalayout = "e-m:e-p270:32:32-p271:32:32-p272:64:64-i64:64-i128:128-f80:128-n8:16:32:64-S128"
target triple = "x86_64-pc-linux-gnu"

; Function Attrs: nounwind uwtable
define dso_local i32 @_archive_set_either_option(ptr noundef %0, ptr noundef %1, ptr noundef %2, ptr noundef %3, ptr noundef %4, ptr noundef %5) #0 {
  %7 = alloca i32, align 4
  %8 = alloca ptr, align 8
  %9 = alloca ptr, align 8
  %10 = alloca ptr, align 8
  %11 = alloca ptr, align 8
  %12 = alloca ptr, align 8
  %13 = alloca ptr, align 8
  %14 = alloca i32, align 4
  %15 = alloca i32, align 4
  %16 = alloca i32, align 4
  store ptr %0, ptr %8, align 8, !tbaa !4
  store ptr %1, ptr %9, align 8, !tbaa !9
  store ptr %2, ptr %10, align 8, !tbaa !9
  store ptr %3, ptr %11, align 8, !tbaa !9
  store ptr %4, ptr %12, align 8, !tbaa !13
  store ptr %5, ptr %13, align 8, !tbaa !13
  call void @llvm.lifetime.start.p0(i64 4, ptr %14) #5
  call void @llvm.lifetime.start.p0(i64 4, ptr %15) #5
  %17 = load ptr, ptr %10, align 8, !tbaa !9
  %18 = icmp eq ptr %17, null
  br i1 %18, label %19, label %23

19:                                               ; preds = %6
  %20 = load ptr, ptr %11, align 8, !tbaa !9
  %21 = icmp eq ptr %20, null
  br i1 %21, label %22, label %23

22:                                               ; preds = %19
  store i32 0, ptr %7, align 4
  store i32 1, ptr %16, align 4
  br label %62

23:                                               ; preds = %19, %6
  %24 = load ptr, ptr %10, align 8, !tbaa !9
  %25 = icmp eq ptr %24, null
  br i1 %25, label %26, label %27

26:                                               ; preds = %23
  store i32 -25, ptr %7, align 4
  store i32 1, ptr %16, align 4
  br label %62

27:                                               ; preds = %23
  %28 = load ptr, ptr %12, align 8, !tbaa !13
  %29 = load ptr, ptr %8, align 8, !tbaa !4
  %30 = load ptr, ptr %9, align 8, !tbaa !9
  %31 = load ptr, ptr %10, align 8, !tbaa !9
  %32 = load ptr, ptr %11, align 8, !tbaa !9
  %33 = call i32 %28(ptr noundef %29, ptr noundef %30, ptr noundef %31, ptr noundef %32)
  store i32 %33, ptr %14, align 4, !tbaa !11
  %34 = load i32, ptr %14, align 4, !tbaa !11
  %35 = icmp eq i32 %34, -30
  br i1 %35, label %36, label %37

36:                                               ; preds = %27
  store i32 -30, ptr %7, align 4
  store i32 1, ptr %16, align 4
  br label %62

37:                                               ; preds = %27
  %38 = load ptr, ptr %13, align 8, !tbaa !13
  %39 = load ptr, ptr %8, align 8, !tbaa !4
  %40 = load ptr, ptr %9, align 8, !tbaa !9
  %41 = load ptr, ptr %10, align 8, !tbaa !9
  %42 = load ptr, ptr %11, align 8, !tbaa !9
  %43 = call i32 %38(ptr noundef %39, ptr noundef %40, ptr noundef %41, ptr noundef %42)
  store i32 %43, ptr %15, align 4, !tbaa !11
  %44 = load i32, ptr %15, align 4, !tbaa !11
  %45 = icmp eq i32 %44, -30
  br i1 %45, label %46, label %47

46:                                               ; preds = %37
  store i32 -30, ptr %7, align 4
  store i32 1, ptr %16, align 4
  br label %62

47:                                               ; preds = %37
  %48 = load i32, ptr %15, align 4, !tbaa !11
  %49 = icmp eq i32 %48, -21
  br i1 %49, label %50, label %52

50:                                               ; preds = %47
  %51 = load i32, ptr %14, align 4, !tbaa !11
  store i32 %51, ptr %7, align 4
  store i32 1, ptr %16, align 4
  br label %62

52:                                               ; preds = %47
  %53 = load i32, ptr %14, align 4, !tbaa !11
  %54 = load i32, ptr %15, align 4, !tbaa !11
  %55 = icmp sgt i32 %53, %54
  br i1 %55, label %56, label %58

56:                                               ; preds = %52
  %57 = load i32, ptr %14, align 4, !tbaa !11
  br label %60

58:                                               ; preds = %52
  %59 = load i32, ptr %15, align 4, !tbaa !11
  br label %60

60:                                               ; preds = %58, %56
  %61 = phi i32 [ %57, %56 ], [ %59, %58 ]
  store i32 %61, ptr %7, align 4
  store i32 1, ptr %16, align 4
  br label %62

62:                                               ; preds = %60, %50, %46, %36, %26, %22
  call void @llvm.lifetime.end.p0(i64 4, ptr %15) #5
  call void @llvm.lifetime.end.p0(i64 4, ptr %14) #5
  %63 = load i32, ptr %7, align 4
  ret i32 %63
}