; Function Attrs: nounwind uwtable
define dso_local i32 @_archive_set_either_option(ptr noundef %0, ptr noundef %1, ptr noundef %2, ptr noundef %3, ptr noundef readonly captures(none) %4, ptr noundef readonly captures(none) %5) local_unnamed_addr #0 {
  %7 = icmp eq ptr %2, null
  %8 = icmp eq ptr %3, null
  %or.cond = and i1 %7, %8
  %.mux = select i1 %or.cond, i32 0, i32 -25
  br i1 %7, label %17, label %9

9:                                                ; preds = %6
  %10 = tail call i32 %4(ptr noundef %0, ptr noundef %1, ptr noundef nonnull %2, ptr noundef %3) #6
  %11 = icmp eq i32 %10, -30
  br i1 %11, label %17, label %12

12:                                               ; preds = %9
  %13 = tail call i32 %5(ptr noundef %0, ptr noundef %1, ptr noundef nonnull %2, ptr noundef %3) #6
  switch i32 %13, label %15 [
    i32 -30, label %17
    i32 -21, label %14
  ]

14:                                               ; preds = %12
  br label %17

15:                                               ; preds = %12
  %16 = tail call i32 @llvm.smax.i32(i32 %10, i32 %13)
  br label %17

17:                                               ; preds = %6, %12, %9, %15, %14
  %.0 = phi i32 [ %10, %14 ], [ %16, %15 ], [ %.mux, %6 ], [ -30, %9 ], [ %13, %12 ]
  ret i32 %.0
}